(dp0
S'Optimal'
p1
(lp2
cfractions
Fraction
p3
(S'1'
p4
tp5
Rp6
ag3
(S'3/2'
p7
tp8
Rp9
ag3
(S'5/3'
p10
tp11
Rp12
ag3
(S'41/24'
p13
tp14
Rp15
ag3
(S'2'
p16
tp17
Rp18
ag3
(S'7/3'
p19
tp20
Rp21
ag3
(S'29/12'
p22
tp23
Rp24
ag3
(S'73/30'
p25
tp26
Rp27
ag3
(S'17/6'
p28
tp29
Rp30
ag3
(S'17/6'
p31
tp32
Rp33
ag3
(S'509/180'
p34
tp35
Rp36
ag3
(S'271/90'
p37
tp38
Rp39
ag3
(S'943/315'
p40
tp41
Rp42
ag3
(S'1279/420'
p43
tp44
Rp45
ag3
(S'3'
p46
tp47
Rp48
ag3
(S'13/4'
p49
tp50
Rp51
ag3
(S'33/10'
p52
tp53
Rp54
ag3
(S'397/120'
p55
tp56
Rp57
ag3
(S'18/5'
p58
tp59
Rp60
ag3
(S'43/12'
p61
tp62
Rp63
ag3
(S'751/210'
p64
tp65
Rp66
ag3
(S'773/210'
p67
tp68
Rp69
ag3
(S'2053/560'
p70
tp71
Rp72
ag3
(S'5573/1512'
p73
tp74
Rp75
ag3
(S'41/10'
p76
tp77
Rp78
ag3
(S'81/20'
p79
tp80
Rp81
ag3
(S'4503/1120'
p82
tp83
Rp84
ag3
(S'57/14'
p85
tp86
Rp87
ag3
(S'20393/5040'
p88
tp89
Rp90
ag3
(S'101921/25200'
p91
tp92
Rp93
ag3
(S'2383/560'
p94
tp95
Rp96
ag3
(S'71051/16800'
p97
tp98
Rp99
ag3
(S'24329/5775'
p100
tp101
Rp102
ag3
(S'143821/33600'
p103
tp104
Rp105
ag3
(S'4'
p106
tp107
Rp108
ag3
(S'21/5'
p109
tp110
Rp111
ag3
(S'127/30'
p112
tp113
Rp114
ag3
(S'89/21'
p115
tp116
Rp117
ag3
(S'67/15'
p118
tp119
Rp120
ag3
(S'467/105'
p121
tp122
Rp123
ag3
(S'533/120'
p124
tp125
Rp126
ag3
(S'947/210'
p127
tp128
Rp129
ag3
(S'2429/540'
p130
tp131
Rp132
ag3
(S'85181/18900'
p133
tp134
Rp135
ag3
(S'169/35'
p136
tp137
Rp138
ag3
(S'669/140'
p139
tp140
Rp141
ag3
(S'1496/315'
p142
tp143
Rp144
ag3
(S'43/9'
p145
tp146
Rp147
ag3
(S'14977/3150'
p148
tp149
Rp150
ag3
(S'6583/1386'
p151
tp152
Rp153
ag3
(S'205/42'
p154
tp155
Rp156
ag3
(S'56137/11550'
p157
tp158
Rp159
ag3
(S'3391/700'
p160
tp161
Rp162
ag3
(S'225307/46200'
p163
tp164
Rp165
ag3
(S'373/70'
p166
tp167
Rp168
ag3
(S'473/90'
p169
tp170
Rp171
ag3
(S'4687/900'
p172
tp173
Rp174
ag3
(S'5483/1050'
p175
tp176
Rp177
ag3
(S'25693/4950'
p178
tp179
Rp180
ag3
(S'7679/1485'
p181
tp182
Rp183
ag3
(S'30364/5775'
p184
tp185
Rp186
ag3
(S'103567/19800'
p187
tp188
Rp189
ag3
(S'4693399/900900'
p190
tp191
Rp192
ag3
(S'21925153/4204200'
p193
tp194
Rp195
ag3
(S'62929/11550'
p196
tp197
Rp198
ag3
(S'2442439/450450'
p199
tp200
Rp201
ag3
(S'17021447/3153150'
p202
tp203
Rp204
ag3
(S'84965537/15765750'
p205
tp206
Rp207
ag3
(S'410548/75075'
p208
tp209
Rp210
asS'InfoV1'
p211
(lp212
g3
(g4
tp213
Rp214
ag3
(S'3/2'
p215
tp216
Rp217
ag3
(S'5/3'
p218
tp219
Rp220
ag3
(S'41/24'
p221
tp222
Rp223
ag3
(g16
tp224
Rp225
ag3
(S'7/3'
p226
tp227
Rp228
ag3
(S'29/12'
p229
tp230
Rp231
ag3
(S'73/30'
p232
tp233
Rp234
ag3
(S'17/6'
p235
tp236
Rp237
ag3
(S'17/6'
p238
tp239
Rp240
ag3
(S'509/180'
p241
tp242
Rp243
ag3
(S'271/90'
p244
tp245
Rp246
ag3
(S'134/45'
p247
tp248
Rp249
ag3
(S'91/30'
p250
tp251
Rp252
ag3
(g46
tp253
Rp254
ag3
(S'13/4'
p255
tp256
Rp257
ag3
(S'33/10'
p258
tp259
Rp260
ag3
(S'397/120'
p261
tp262
Rp263
ag3
(S'18/5'
p264
tp265
Rp266
ag3
(S'43/12'
p267
tp268
Rp269
ag3
(S'751/210'
p270
tp271
Rp272
ag3
(S'773/210'
p273
tp274
Rp275
ag3
(S'2043/560'
p276
tp277
Rp278
ag3
(S'1853/504'
p279
tp280
Rp281
ag3
(S'41/10'
p282
tp283
Rp284
ag3
(S'81/20'
p285
tp286
Rp287
ag3
(S'4491/1120'
p288
tp289
Rp290
ag3
(S'1137/280'
p291
tp292
Rp293
ag3
(S'6781/1680'
p294
tp295
Rp296
ag3
(S'6749/1680'
p297
tp298
Rp299
ag3
(S'2379/560'
p300
tp301
Rp302
ag3
(S'3359/800'
p303
tp304
Rp305
ag3
(S'192853/46200'
p306
tp307
Rp308
ag3
(S'1571107/369600'
p309
tp310
Rp311
ag3
(g106
tp312
Rp313
ag3
(S'21/5'
p314
tp315
Rp316
ag3
(S'127/30'
p317
tp318
Rp319
ag3
(S'89/21'
p320
tp321
Rp322
ag3
(S'67/15'
p323
tp324
Rp325
ag3
(S'467/105'
p326
tp327
Rp328
ag3
(S'533/120'
p329
tp330
Rp331
ag3
(S'947/210'
p332
tp333
Rp334
ag3
(S'16943/3780'
p335
tp336
Rp337
ag3
(S'85051/18900'
p338
tp339
Rp340
ag3
(S'169/35'
p341
tp342
Rp343
ag3
(S'669/140'
p344
tp345
Rp346
ag3
(S'5963/1260'
p347
tp348
Rp349
ag3
(S'857/180'
p350
tp351
Rp352
ag3
(S'14957/3150'
p353
tp354
Rp355
ag3
(S'1090/231'
p356
tp357
Rp358
ag3
(S'20473/4200'
p359
tp360
Rp361
ag3
(S'223007/46200'
p362
tp363
Rp364
ag3
(S'443683/92400'
p365
tp366
Rp367
ag3
(S'1456333/300300'
p368
tp369
Rp370
ag3
(S'373/70'
p371
tp372
Rp373
ag3
(S'473/90'
p374
tp375
Rp376
ag3
(S'10909/2100'
p377
tp378
Rp379
ag3
(S'1172/225'
p380
tp381
Rp382
ag3
(S'17921/3465'
p383
tp384
Rp385
ag3
(S'267593/51975'
p386
tp387
Rp388
ag3
(S'60493/11550'
p389
tp390
Rp391
ag3
(S'721439/138600'
p392
tp393
Rp394
ag3
(S'103321/20020'
p395
tp396
Rp397
ag3
(S'5442413/1051050'
p398
tp399
Rp400
ag3
(S'4483/825'
p401
tp402
Rp403
ag3
(S'807551/150150'
p404
tp405
Rp406
ag3
(S'1204328/225225'
p407
tp408
Rp409
ag3
(S'42084527/7882875'
p410
tp411
Rp412
ag3
(S'42780644/7882875'
p413
tp414
Rp415
asS'Initial'
p416
(lp417
(I1
I0
I0
I0
tp418
a(I1
I1
I0
I0
tp419
a(I1
I1
I1
I0
tp420
a(I1
I1
I1
I1
tp421
a(I2
I0
I0
I0
tp422
a(I2
I1
I0
I0
tp423
a(I2
I1
I1
I0
tp424
a(I2
I1
I1
I1
tp425
a(I2
I2
I0
I0
tp426
a(I2
I2
I1
I0
tp427
a(I2
I2
I1
I1
tp428
a(I2
I2
I2
I0
tp429
a(I2
I2
I2
I1
tp430
a(I2
I2
I2
I2
tp431
a(I3
I0
I0
I0
tp432
a(I3
I1
I0
I0
tp433
a(I3
I1
I1
I0
tp434
a(I3
I1
I1
I1
tp435
a(I3
I2
I0
I0
tp436
a(I3
I2
I1
I0
tp437
a(I3
I2
I1
I1
tp438
a(I3
I2
I2
I0
tp439
a(I3
I2
I2
I1
tp440
a(I3
I2
I2
I2
tp441
a(I3
I3
I0
I0
tp442
a(I3
I3
I1
I0
tp443
a(I3
I3
I1
I1
tp444
a(I3
I3
I2
I0
tp445
a(I3
I3
I2
I1
tp446
a(I3
I3
I2
I2
tp447
a(I3
I3
I3
I0
tp448
a(I3
I3
I3
I1
tp449
a(I3
I3
I3
I2
tp450
a(I3
I3
I3
I3
tp451
a(I4
I0
I0
I0
tp452
a(I4
I1
I0
I0
tp453
a(I4
I1
I1
I0
tp454
a(I4
I1
I1
I1
tp455
a(I4
I2
I0
I0
tp456
a(I4
I2
I1
I0
tp457
a(I4
I2
I1
I1
tp458
a(I4
I2
I2
I0
tp459
a(I4
I2
I2
I1
tp460
a(I4
I2
I2
I2
tp461
a(I4
I3
I0
I0
tp462
a(I4
I3
I1
I0
tp463
a(I4
I3
I1
I1
tp464
a(I4
I3
I2
I0
tp465
a(I4
I3
I2
I1
tp466
a(I4
I3
I2
I2
tp467
a(I4
I3
I3
I0
tp468
a(I4
I3
I3
I1
tp469
a(I4
I3
I3
I2
tp470
a(I4
I3
I3
I3
tp471
a(I4
I4
I0
I0
tp472
a(I4
I4
I1
I0
tp473
a(I4
I4
I1
I1
tp474
a(I4
I4
I2
I0
tp475
a(I4
I4
I2
I1
tp476
a(I4
I4
I2
I2
tp477
a(I4
I4
I3
I0
tp478
a(I4
I4
I3
I1
tp479
a(I4
I4
I3
I2
tp480
a(I4
I4
I3
I3
tp481
a(I4
I4
I4
I0
tp482
a(I4
I4
I4
I1
tp483
a(I4
I4
I4
I2
tp484
a(I4
I4
I4
I3
tp485
a(I4
I4
I4
I4
tp486
asS'Greedy'
p487
(lp488
g3
(g4
tp489
Rp490
ag3
(S'3/2'
p491
tp492
Rp493
ag3
(S'5/3'
p494
tp495
Rp496
ag3
(S'41/24'
p497
tp498
Rp499
ag3
(g16
tp500
Rp501
ag3
(S'7/3'
p502
tp503
Rp504
ag3
(S'29/12'
p505
tp506
Rp507
ag3
(S'73/30'
p508
tp509
Rp510
ag3
(S'17/6'
p511
tp512
Rp513
ag3
(S'17/6'
p514
tp515
Rp516
ag3
(S'509/180'
p517
tp518
Rp519
ag3
(S'271/90'
p520
tp521
Rp522
ag3
(S'134/45'
p523
tp524
Rp525
ag3
(S'91/30'
p526
tp527
Rp528
ag3
(g46
tp529
Rp530
ag3
(S'13/4'
p531
tp532
Rp533
ag3
(S'33/10'
p534
tp535
Rp536
ag3
(S'397/120'
p537
tp538
Rp539
ag3
(S'18/5'
p540
tp541
Rp542
ag3
(S'43/12'
p543
tp544
Rp545
ag3
(S'751/210'
p546
tp547
Rp548
ag3
(S'773/210'
p549
tp550
Rp551
ag3
(S'2043/560'
p552
tp553
Rp554
ag3
(S'1853/504'
p555
tp556
Rp557
ag3
(S'41/10'
p558
tp559
Rp560
ag3
(S'81/20'
p561
tp562
Rp563
ag3
(S'4479/1120'
p564
tp565
Rp566
ag3
(S'81/20'
p567
tp568
Rp569
ag3
(S'6781/1680'
p570
tp571
Rp572
ag3
(S'33673/8400'
p573
tp574
Rp575
ag3
(S'475/112'
p576
tp577
Rp578
ag3
(S'23509/5600'
p579
tp580
Rp581
ag3
(S'192637/46200'
p582
tp583
Rp584
ag3
(S'1570447/369600'
p585
tp586
Rp587
ag3
(g106
tp588
Rp589
ag3
(S'21/5'
p590
tp591
Rp592
ag3
(S'127/30'
p593
tp594
Rp595
ag3
(S'89/21'
p596
tp597
Rp598
ag3
(S'67/15'
p599
tp600
Rp601
ag3
(S'467/105'
p602
tp603
Rp604
ag3
(S'533/120'
p605
tp606
Rp607
ag3
(S'947/210'
p608
tp609
Rp610
ag3
(S'16943/3780'
p611
tp612
Rp613
ag3
(S'85051/18900'
p614
tp615
Rp616
ag3
(S'169/35'
p617
tp618
Rp619
ag3
(S'669/140'
p620
tp621
Rp622
ag3
(S'851/180'
p623
tp624
Rp625
ag3
(S'5993/1260'
p626
tp627
Rp628
ag3
(S'14957/3150'
p629
tp630
Rp631
ag3
(S'27232/5775'
p632
tp633
Rp634
ag3
(S'2923/600'
p635
tp636
Rp637
ag3
(S'44599/9240'
p638
tp639
Rp640
ag3
(S'443539/92400'
p641
tp642
Rp643
ag3
(S'52006/10725'
p644
tp645
Rp646
ag3
(S'373/70'
p647
tp648
Rp649
ag3
(S'473/90'
p650
tp651
Rp652
ag3
(S'519/100'
p653
tp654
Rp655
ag3
(S'16393/3150'
p656
tp657
Rp658
ag3
(S'89371/17325'
p659
tp660
Rp661
ag3
(S'267431/51975'
p662
tp663
Rp664
ag3
(S'30154/5775'
p665
tp666
Rp667
ag3
(S'103061/19800'
p668
tp669
Rp670
ag3
(S'73787/14300'
p671
tp672
Rp673
ag3
(S'21724271/4204200'
p674
tp675
Rp676
ag3
(S'93964/17325'
p677
tp678
Rp679
ag3
(S'807377/150150'
p680
tp681
Rp682
ag3
(S'8428928/1576575'
p683
tp684
Rp685
ag3
(S'42039476/7882875'
p686
tp687
Rp688
ag3
(S'634709/117000'
p689
tp690
Rp691
asS'Time'
p692
(lp693
F0.0025320053100585938
aF0.008157014846801758
aF0.05477595329284668
aF0.2649519443511963
aF0.012598037719726562
aF0.014355897903442383
aF0.15373587608337402
aF0.7353060245513916
aF0.029588937759399414
aF0.41027402877807617
aF2.1091902256011963
aF1.172874927520752
aF5.920846939086914
aF16.319939851760864
aF0.011354923248291016
aF0.018281936645507812
aF0.27005910873413086
aF1.5662798881530762
aF0.03223299980163574
aF0.8726761341094971
aF4.635621070861816
aF2.5884599685668945
aF12.987924098968506
aF35.253986835479736
aF0.042755842208862305
aF2.02987003326416
aF10.701735019683838
aF6.207023859024048
aF28.800689935684204
aF77.1831328868866
aF14.5573251247406
aF63.32312202453613
aF161.62751007080078
aF334.42929100990295
aF0.01675701141357422
aF0.023389101028442383
aF0.4973270893096924
aF2.850771903991699
aF0.03973817825317383
aF1.602139949798584
aF8.722623109817505
aF5.049115896224976
aF24.384700059890747
aF65.11228108406067
aF0.04981684684753418
aF3.75592303276062
aF19.70891809463501
aF11.785325050354004
aF53.46004295349121
aF139.18652296066284
aF26.817445039749146
aF114.8971779346466
aF291.99383902549744
aF599.3076720237732
aF0.06992197036743164
aF7.529126167297363
aF37.61129689216614
aF22.964115142822266
aF101.53564405441284
aF256.1824400424957
aF51.43085503578186
aF213.212749004364
aF531.5179409980774
aF1079.2696280479431
aF99.1167299747467
aF397.33469891548157
aF971.3258080482483
aF1939.7613220214844
aF3464.9881479740143
as.